target datalayout = "e-m:e-p270:32:32-p271:32:32-p272:64:64-i64:64-i128:128-f80:128-n8:16:32:64-S128"
target triple = "x86_64-pc-linux-gnu"

%struct.draw_methods = type { ptr, ptr, ptr, ptr, ptr, ptr }
%struct.lstopo_cairo_output = type { ptr, ptr, ptr }
%struct.lstopo_output = type { ptr, i32, i32, i32, ptr, i32, i32, i32, i32, i32, i32, i32, i32, ptr, ptr, i32, i32, i64, i64, i64, i32, [3 x [128 x i8]], i32, i32, ptr, i32, i32, i32, i32, i32, i32, %struct.hwloc_calc_level, i32, i32, i32, i64, [256 x i8], i32, i32, i32, i32, i32, float, [20 x i32], i32, i32, i32, [20 x i32], i32, [20 x i32], i32, [20 x i32], i32, i32, i32, i32, ptr, ptr, i32, [20 x i32], [20 x i32], [20 x i32], ptr, ptr, i64, ptr, i32, i32, i32 }
%struct.hwloc_calc_level = type { i32, i32, %union.hwloc_obj_attr_u, [32 x i8], i32, i32, i32, i32 }
%union.hwloc_obj_attr_u = type { %struct.hwloc_numanode_attr_s, [24 x i8] }
%struct.hwloc_numanode_attr_s = type { i64, i32, ptr }

@stderr = external global ptr, align 8
@.str.22 = private unnamed_addr constant [36 x i8] c"Failed to open %s for writing (%s)\0A\00", align 1
@stdout = external global ptr, align 8
@ps_draw_methods = internal global %struct.draw_methods { ptr null, ptr null, ptr @topo_cairo_box, ptr @topo_cairo_line, ptr @topo_cairo_text, ptr @topo_cairo_textsize }, align 8

; Function Attrs: nounwind uwtable
define internal void @topo_cairo_paint(ptr noundef %0) #0 {
  %2 = alloca ptr, align 8
  %3 = alloca i32, align 4
  %4 = alloca ptr, align 8
  %5 = alloca ptr, align 8
  store ptr %0, ptr %2, align 8, !tbaa !15
  call void @llvm.lifetime.start.p0(i64 4, ptr %3) #10
  %6 = load ptr, ptr %2, align 8, !tbaa !15
  %7 = getelementptr inbounds nuw %struct.lstopo_cairo_output, ptr %6, i32 0, i32 0
  %8 = load ptr, ptr %7, align 8, !tbaa !17
  %9 = getelementptr inbounds nuw %struct.lstopo_output, ptr %8, i32 0, i32 39
  %10 = load i32, ptr %9, align 8, !tbaa !55
  store i32 %10, ptr %3, align 4, !tbaa !13
  call void @llvm.lifetime.start.p0(i64 8, ptr %4) #10
  %11 = load ptr, ptr %2, align 8, !tbaa !15
  %12 = getelementptr inbounds nuw %struct.lstopo_cairo_output, ptr %11, i32 0, i32 1
  %13 = load ptr, ptr %12, align 8, !tbaa !102
  store ptr %13, ptr %4, align 8, !tbaa !103
  call void @llvm.lifetime.start.p0(i64 8, ptr %5) #10
  %14 = load ptr, ptr %4, align 8, !tbaa !103
  %15 = call ptr @cairo_create(ptr noundef %14)
  store ptr %15, ptr %5, align 8, !tbaa !104
  %16 = load ptr, ptr %5, align 8, !tbaa !104
  %17 = load ptr, ptr %2, align 8, !tbaa !15
  %18 = getelementptr inbounds nuw %struct.lstopo_cairo_output, ptr %17, i32 0, i32 2
  store ptr %16, ptr %18, align 8, !tbaa !105
  %19 = load ptr, ptr %5, align 8, !tbaa !104
  %20 = load i32, ptr %3, align 4, !tbaa !13
  %21 = uitofp i32 %20 to double
  call void @cairo_set_font_size(ptr noundef %19, double noundef %21)
  %22 = load ptr, ptr %5, align 8, !tbaa !104
  %23 = load ptr, ptr %2, align 8, !tbaa !15
  %24 = getelementptr inbounds nuw %struct.lstopo_cairo_output, ptr %23, i32 0, i32 0
  %25 = load ptr, ptr %24, align 8, !tbaa !17
  %26 = getelementptr inbounds nuw %struct.lstopo_output, ptr %25, i32 0, i32 41
  %27 = load i32, ptr %26, align 8, !tbaa !106
  %28 = uitofp i32 %27 to double
  call void @cairo_set_line_width(ptr noundef %22, double noundef %28)
  %29 = load ptr, ptr %2, align 8, !tbaa !15
  %30 = getelementptr inbounds nuw %struct.lstopo_cairo_output, ptr %29, i32 0, i32 0
  %31 = load ptr, ptr %30, align 8, !tbaa !17
  call void @output_draw(ptr noundef %31)
  %32 = load ptr, ptr %5, align 8, !tbaa !104
  call void @cairo_show_page(ptr noundef %32)
  %33 = load ptr, ptr %5, align 8, !tbaa !104
  call void @cairo_destroy(ptr noundef %33)
  %34 = load ptr, ptr %2, align 8, !tbaa !15
  %35 = getelementptr inbounds nuw %struct.lstopo_cairo_output, ptr %34, i32 0, i32 2
  store ptr null, ptr %35, align 8, !tbaa !105
  call void @llvm.lifetime.end.p0(i64 8, ptr %5) #10
  call void @llvm.lifetime.end.p0(i64 8, ptr %4) #10
  call void @llvm.lifetime.end.p0(i64 4, ptr %3) #10
  ret void
}

; Function Attrs: nounwind uwtable
define hidden i32 @output_ps(ptr noundef %0, ptr noundef %1) #0 {
  %3 = alloca i32, align 4
  %4 = alloca ptr, align 8
  %5 = alloca ptr, align 8
  %6 = alloca %struct.lstopo_cairo_output, align 8
  %7 = alloca ptr, align 8
  %8 = alloca ptr, align 8
  %9 = alloca ptr, align 8
  %10 = alloca i32, align 4
  store ptr %0, ptr %4, align 8, !tbaa !4
  store ptr %1, ptr %5, align 8, !tbaa !9
  call void @llvm.lifetime.start.p0(i64 24, ptr %6) #10
  call void @llvm.lifetime.start.p0(i64 8, ptr %7) #10
  call void @llvm.lifetime.start.p0(i64 8, ptr %8) #10
  call void @llvm.lifetime.start.p0(i64 8, ptr %9) #10
  %11 = load ptr, ptr %5, align 8, !tbaa !9
  %12 = load ptr, ptr %4, align 8, !tbaa !4
  %13 = getelementptr inbounds nuw %struct.lstopo_output, ptr %12, i32 0, i32 5
  %14 = load i32, ptr %13, align 8, !tbaa !108
  %15 = call noalias ptr @open_output(ptr noundef %11, i32 noundef %14)
  store ptr %15, ptr %7, align 8, !tbaa !35
  %16 = load ptr, ptr %7, align 8, !tbaa !35
  %17 = icmp ne ptr %16, null
  br i1 %17, label %25, label %18

18:                                               ; preds = %2
  %19 = load ptr, ptr @stderr, align 8, !tbaa !35
  %20 = load ptr, ptr %5, align 8, !tbaa !9
  %21 = call ptr @__errno_location() #13
  %22 = load i32, ptr %21, align 4, !tbaa !13
  %23 = call ptr @strerror(i32 noundef %22) #10
  %24 = call i32 (ptr, ptr, ...) @fprintf(ptr noundef %19, ptr noundef @.str.22, ptr noundef %20, ptr noundef %23) #10
  store i32 -1, ptr %3, align 4
  store i32 1, ptr %10, align 4
  br label %71

25:                                               ; preds = %2
  call void @llvm.memset.p0.i64(ptr align 8 %6, i8 0, i64 24, i1 false)
  %26 = load ptr, ptr %4, align 8, !tbaa !4
  %27 = getelementptr inbounds nuw %struct.lstopo_cairo_output, ptr %6, i32 0, i32 0
  store ptr %26, ptr %27, align 8, !tbaa !17
  %28 = load ptr, ptr %4, align 8, !tbaa !4
  %29 = getelementptr inbounds nuw %struct.lstopo_output, ptr %28, i32 0, i32 63
  store ptr %6, ptr %29, align 8, !tbaa !21
  %30 = load ptr, ptr %4, align 8, !tbaa !4
  %31 = getelementptr inbounds nuw %struct.lstopo_output, ptr %30, i32 0, i32 65
  store ptr @ps_draw_methods, ptr %31, align 8, !tbaa !32
  %32 = load ptr, ptr %7, align 8, !tbaa !35
  %33 = load ptr, ptr %4, align 8, !tbaa !4
  %34 = getelementptr inbounds nuw %struct.lstopo_output, ptr %33, i32 0, i32 4
  store ptr %32, ptr %34, align 8, !tbaa !109
  %35 = call ptr @cairo_ps_surface_create_for_stream(ptr noundef null, ptr noundef null, double noundef 1.000000e+00, double noundef 1.000000e+00)
  store ptr %35, ptr %8, align 8, !tbaa !103
  %36 = load ptr, ptr %8, align 8, !tbaa !103
  %37 = getelementptr inbounds nuw %struct.lstopo_cairo_output, ptr %6, i32 0, i32 1
  store ptr %36, ptr %37, align 8, !tbaa !102
  %38 = load ptr, ptr %4, align 8, !tbaa !4
  %39 = getelementptr inbounds nuw %struct.lstopo_output, ptr %38, i32 0, i32 66
  store i32 0, ptr %39, align 8, !tbaa !60
  call void @topo_cairo_paint(ptr noundef %6)
  %40 = load ptr, ptr %4, align 8, !tbaa !4
  %41 = getelementptr inbounds nuw %struct.lstopo_output, ptr %40, i32 0, i32 66
  store i32 1, ptr %41, align 8, !tbaa !60
  %42 = load ptr, ptr %8, align 8, !tbaa !103
  call void @cairo_surface_destroy(ptr noundef %42)
  %43 = load ptr, ptr %4, align 8, !tbaa !4
  %44 = getelementptr inbounds nuw %struct.lstopo_output, ptr %43, i32 0, i32 4
  %45 = load ptr, ptr %44, align 8, !tbaa !109
  %46 = load ptr, ptr %4, align 8, !tbaa !4
  %47 = getelementptr inbounds nuw %struct.lstopo_output, ptr %46, i32 0, i32 67
  %48 = load i32, ptr %47, align 4, !tbaa !61
  %49 = uitofp i32 %48 to double
  %50 = load ptr, ptr %4, align 8, !tbaa !4
  %51 = getelementptr inbounds nuw %struct.lstopo_output, ptr %50, i32 0, i32 68
  %52 = load i32, ptr %51, align 8, !tbaa !62
  %53 = uitofp i32 %52 to double
  %54 = call ptr @cairo_ps_surface_create_for_stream(ptr noundef @topo_cairo_write, ptr noundef %45, double noundef %49, double noundef %53)
  store ptr %54, ptr %9, align 8, !tbaa !103
  %55 = load ptr, ptr %9, align 8, !tbaa !103
  %56 = getelementptr inbounds nuw %struct.lstopo_cairo_output, ptr %6, i32 0, i32 1
  store ptr %55, ptr %56, align 8, !tbaa !102
  %57 = load ptr, ptr %4, align 8, !tbaa !4
  call void @declare_colors(ptr noundef %57)
  %58 = load ptr, ptr %4, align 8, !tbaa !4
  call void @lstopo_prepare_custom_styles(ptr noundef %58)
  call void @topo_cairo_paint(ptr noundef %6)
  %59 = getelementptr inbounds nuw %struct.lstopo_cairo_output, ptr %6, i32 0, i32 1
  %60 = load ptr, ptr %59, align 8, !tbaa !102
  call void @cairo_surface_flush(ptr noundef %60)
  %61 = getelementptr inbounds nuw %struct.lstopo_cairo_output, ptr %6, i32 0, i32 1
  %62 = load ptr, ptr %61, align 8, !tbaa !102
  call void @cairo_surface_destroy(ptr noundef %62)
  %63 = load ptr, ptr %7, align 8, !tbaa !35
  %64 = load ptr, ptr @stdout, align 8, !tbaa !35
  %65 = icmp ne ptr %63, %64
  br i1 %65, label %66, label %69

66:                                               ; preds = %25
  %67 = load ptr, ptr %7, align 8, !tbaa !35
  %68 = call i32 @fclose(ptr noundef %67)
  br label %69

69:                                               ; preds = %66, %25
  %70 = load ptr, ptr %4, align 8, !tbaa !4
  call void @destroy_colors(ptr noundef %70)
  store i32 0, ptr %3, align 4
  store i32 1, ptr %10, align 4
  br label %71

71:                                               ; preds = %69, %18
  call void @llvm.lifetime.end.p0(i64 8, ptr %9) #10
  call void @llvm.lifetime.end.p0(i64 8, ptr %8) #10
  call void @llvm.lifetime.end.p0(i64 8, ptr %7) #10
  call void @llvm.lifetime.end.p0(i64 24, ptr %6) #10
  %72 = load i32, ptr %3, align 4
  ret i32 %72
}